(i__main__
UrbanData
p0
(dp1
S'Y'
p2
cnumpy.core.multiarray
_reconstruct
p3
(cnumpy
ndarray
p4
(I0
tp5
S'b'
p6
tp7
Rp8
(I1
(L0L
L0L
tp9
cnumpy
dtype
p10
(S'f8'
p11
I0
I1
tp12
Rp13
(I3
S'<'
p14
NNNI-1
I-1
I0
tp15
bI00
S''
p16
tp17
bsS'X'
p18
g3
(g4
(I0
tp19
g6
tp20
Rp21
(I1
(L0L
L193L
tp22
g13
I00
g16
tp23
bsb.